; Function Attrs: mustprogress nounwind uwtable
define hidden noundef range(i32 0, 104) i32 @_ZN12JvmtiEnvBase15get_stack_traceEP10JavaThreadiiP14jvmtiFrameInfoPi(ptr nocapture nonnull readnone align 8 %0, ptr noundef %1, i32 noundef %2, i32 noundef %3, ptr nocapture noundef writeonly %4, ptr nocapture noundef writeonly %5) local_unnamed_addr #0 align 2 {
  %7 = alloca %class.RegisterMap, align 8
  %8 = tail call align 8 ptr @llvm.threadlocal.address.p0(ptr align 8 @_ZN6Thread12_thr_currentE)
  %9 = load ptr, ptr %8, align 8
  %10 = getelementptr inbounds i8, ptr %1, i64 928
  %11 = load volatile ptr, ptr %10, align 8
  %.not15 = icmp eq ptr %11, null
  br i1 %.not15, label %30, label %12

12:                                               ; preds = %6
  call void @_ZN11RegisterMapC1EP10JavaThreadNS_9UpdateMapENS_13ProcessFramesENS_16WalkContinuationE(ptr noundef nonnull align 8 dereferenceable(4983) %7, ptr noundef nonnull %1, i32 noundef 1, i32 noundef 0, i32 noundef 0) #18
  %13 = getelementptr inbounds i8, ptr %9, i64 800
  %14 = load ptr, ptr %13, align 8
  %15 = getelementptr inbounds i8, ptr %14, i64 24
  %16 = load ptr, ptr %15, align 8
  %17 = getelementptr inbounds i8, ptr %14, i64 32
  %18 = load ptr, ptr %17, align 8
  %19 = getelementptr inbounds i8, ptr %14, i64 40
  %20 = load ptr, ptr %19, align 8
  %21 = getelementptr inbounds i8, ptr %14, i64 8
  %22 = load i64, ptr %21, align 8
  %23 = call noundef ptr @_ZN12JvmtiEnvBase28get_cthread_last_java_vframeEP10JavaThreadP11RegisterMap(ptr noundef nonnull %1, ptr noundef nonnull %7)
  %24 = call noundef i32 @_ZN12JvmtiEnvBase15get_stack_traceEP10javaVFrameiiP14jvmtiFrameInfoPi(ptr nonnull align 8 poison, ptr noundef %23, i32 noundef %2, i32 noundef %3, ptr noundef %4, ptr noundef %5)
  %25 = load ptr, ptr %16, align 8
  %.not.i.i.i.i = icmp eq ptr %25, null
  br i1 %.not.i.i.i.i, label %27, label %26

26:                                               ; preds = %12
  call void @_ZN5Arena17set_size_in_bytesEm(ptr noundef nonnull align 8 dereferenceable(48) %14, i64 noundef %22) #18
  call void @_ZN5Chunk9next_chopEPS_(ptr noundef nonnull %16) #18
  br label %27

27:                                               ; preds = %26, %12
  %28 = load ptr, ptr %17, align 8
  %.not8.i.i.i.i = icmp eq ptr %28, %18
  br i1 %.not8.i.i.i.i, label %_ZN12ResourceMarkD2Ev.exit, label %29

29:                                               ; preds = %27
  store ptr %16, ptr %15, align 8
  store ptr %18, ptr %17, align 8
  store ptr %20, ptr %19, align 8
  br label %_ZN12ResourceMarkD2Ev.exit

30:                                               ; preds = %6
  store i32 0, ptr %5, align 4
  %.not = icmp eq i32 %2, 0
  %spec.select = select i1 %.not, i32 0, i32 103
  br label %_ZN12ResourceMarkD2Ev.exit

_ZN12ResourceMarkD2Ev.exit:                       ; preds = %29, %27, %30
  %.0 = phi i32 [ %spec.select, %30 ], [ %24, %27 ], [ %24, %29 ]
  ret i32 %.0
}